target datalayout = "e-m:e-p270:32:32-p271:32:32-p272:64:64-i64:64-i128:128-f80:128-n8:16:32:64-S128"
target triple = "x86_64-pc-linux-gnu"

%class.TransTableS = type <{ %class.TransTable, [14 x i64], %"struct.TransTableS::statsResetsType", [4 x i8], [5 x %"struct.TransTableS::winCardType"], i32, i32, i64, i64, i64, i32, i32, i32, i32, i32, i8, [3 x i8], i32, [4 x i8], ptr, [14 x [4 x ptr]], ptr, ptr, [14 x [4 x ptr]], ptr, ptr, [14 x [4 x ptr]], i32, i32, [14 x [4 x i32]], [14 x [4 x i32]], %"class.std::vector", [14 x i64], i32, [4 x i8] }>
%class.TransTable = type { ptr }
%"struct.TransTableS::statsResetsType" = type { i32, [6 x i32] }
%"struct.TransTableS::winCardType" = type { i32, i32, ptr, ptr, ptr, ptr }
%"class.std::vector" = type { %"struct.std::_Vector_base" }
%"struct.std::_Vector_base" = type { %"struct.std::_Vector_base<std::__cxx11::basic_string<char>, std::allocator<std::__cxx11::basic_string<char>>>::_Vector_impl" }
%"struct.std::_Vector_base<std::__cxx11::basic_string<char>, std::allocator<std::__cxx11::basic_string<char>>>::_Vector_impl" = type { %"struct.std::_Vector_base<std::__cxx11::basic_string<char>, std::allocator<std::__cxx11::basic_string<char>>>::_Vector_impl_data" }
%"struct.std::_Vector_base<std::__cxx11::basic_string<char>, std::allocator<std::__cxx11::basic_string<char>>>::_Vector_impl_data" = type { ptr, ptr, ptr }

; Function Attrs: mustprogress nounwind uwtable
define void @_ZN11TransTableS9AddWinSetEv(ptr noundef nonnull align 8 dereferenceable(2396) %0) #5 align 2 {
  %2 = alloca ptr, align 8
  store ptr %0, ptr %2, align 8
  %3 = load ptr, ptr %2, align 8
  %4 = getelementptr inbounds nuw %class.TransTableS, ptr %3, i32 0, i32 15
  %5 = load i8, ptr %4, align 4
  %6 = trunc i8 %5 to i1
  br i1 %6, label %7, label %20

7:                                                ; preds = %1
  %8 = getelementptr inbounds nuw %class.TransTableS, ptr %3, i32 0, i32 17
  %9 = load i32, ptr %8, align 8
  %10 = add nsw i32 %9, 1
  store i32 %10, ptr %8, align 8
  %11 = getelementptr inbounds nuw %class.TransTableS, ptr %3, i32 0, i32 17
  %12 = load i32, ptr %11, align 8
  %13 = getelementptr inbounds nuw %class.TransTableS, ptr %3, i32 0, i32 28
  store i32 %12, ptr %13, align 4
  %14 = getelementptr inbounds nuw %class.TransTableS, ptr %3, i32 0, i32 4
  %15 = getelementptr inbounds nuw %class.TransTableS, ptr %3, i32 0, i32 17
  %16 = load i32, ptr %15, align 8
  %17 = sext i32 %16 to i64
  %18 = getelementptr inbounds [5 x %"struct.TransTableS::winCardType"], ptr %14, i64 0, i64 %17
  %19 = getelementptr inbounds nuw %class.TransTableS, ptr %3, i32 0, i32 25
  store ptr %18, ptr %19, align 8
  br label %114

20:                                               ; preds = %1
  %21 = getelementptr inbounds nuw %class.TransTableS, ptr %3, i32 0, i32 28
  %22 = load i32, ptr %21, align 4
  %23 = getelementptr inbounds nuw %class.TransTableS, ptr %3, i32 0, i32 6
  %24 = load i32, ptr %23, align 4
  %25 = icmp sge i32 %22, %24
  br i1 %25, label %26, label %109

26:                                               ; preds = %20
  %27 = getelementptr inbounds nuw %class.TransTableS, ptr %3, i32 0, i32 8
  %28 = load i64, ptr %27, align 8
  %29 = getelementptr inbounds nuw %class.TransTableS, ptr %3, i32 0, i32 10
  %30 = load i32, ptr %29, align 8
  %31 = sext i32 %30 to i64
  %32 = add i64 %28, %31
  %33 = getelementptr inbounds nuw %class.TransTableS, ptr %3, i32 0, i32 7
  %34 = load i64, ptr %33, align 8
  %35 = icmp ugt i64 %32, %34
  br i1 %35, label %46, label %36

36:                                               ; preds = %26
  %37 = getelementptr inbounds nuw %class.TransTableS, ptr %3, i32 0, i32 13
  %38 = load i32, ptr %37, align 4
  %39 = getelementptr inbounds nuw %class.TransTableS, ptr %3, i32 0, i32 12
  %40 = load i32, ptr %39, align 8
  %41 = icmp sge i32 %38, %40
  br i1 %41, label %46, label %42

42:                                               ; preds = %36
  %43 = getelementptr inbounds nuw %class.TransTableS, ptr %3, i32 0, i32 28
  %44 = load i32, ptr %43, align 4
  %45 = icmp sgt i32 %44, 700000
  br i1 %45, label %46, label %60

46:                                               ; preds = %42, %36, %26
  %47 = getelementptr inbounds nuw %class.TransTableS, ptr %3, i32 0, i32 17
  %48 = load i32, ptr %47, align 8
  %49 = add nsw i32 %48, 1
  store i32 %49, ptr %47, align 8
  %50 = getelementptr inbounds nuw %class.TransTableS, ptr %3, i32 0, i32 17
  %51 = load i32, ptr %50, align 8
  %52 = getelementptr inbounds nuw %class.TransTableS, ptr %3, i32 0, i32 28
  store i32 %51, ptr %52, align 4
  %53 = getelementptr inbounds nuw %class.TransTableS, ptr %3, i32 0, i32 15
  store i8 1, ptr %53, align 4
  %54 = getelementptr inbounds nuw %class.TransTableS, ptr %3, i32 0, i32 4
  %55 = getelementptr inbounds nuw %class.TransTableS, ptr %3, i32 0, i32 17
  %56 = load i32, ptr %55, align 8
  %57 = sext i32 %56 to i64
  %58 = getelementptr inbounds [5 x %"struct.TransTableS::winCardType"], ptr %54, i64 0, i64 %57
  %59 = getelementptr inbounds nuw %class.TransTableS, ptr %3, i32 0, i32 25
  store ptr %58, ptr %59, align 8
  br label %108

60:                                               ; preds = %42
  %61 = getelementptr inbounds nuw %class.TransTableS, ptr %3, i32 0, i32 13
  %62 = load i32, ptr %61, align 4
  %63 = add nsw i32 %62, 1
  store i32 %63, ptr %61, align 4
  %64 = getelementptr inbounds nuw %class.TransTableS, ptr %3, i32 0, i32 6
  store i32 50000, ptr %64, align 4
  %65 = call noalias ptr @malloc(i64 noundef 2000040) #18
  %66 = getelementptr inbounds nuw %class.TransTableS, ptr %3, i32 0, i32 21
  %67 = load ptr, ptr %66, align 8
  %68 = getelementptr inbounds nuw %class.TransTableS, ptr %3, i32 0, i32 13
  %69 = load i32, ptr %68, align 4
  %70 = sext i32 %69 to i64
  %71 = getelementptr inbounds ptr, ptr %67, i64 %70
  store ptr %65, ptr %71, align 8
  %72 = getelementptr inbounds nuw %class.TransTableS, ptr %3, i32 0, i32 21
  %73 = load ptr, ptr %72, align 8
  %74 = getelementptr inbounds nuw %class.TransTableS, ptr %3, i32 0, i32 13
  %75 = load i32, ptr %74, align 4
  %76 = sext i32 %75 to i64
  %77 = getelementptr inbounds ptr, ptr %73, i64 %76
  %78 = load ptr, ptr %77, align 8
  %79 = icmp eq ptr %78, null
  br i1 %79, label %80, label %94

80:                                               ; preds = %60
  %81 = getelementptr inbounds nuw %class.TransTableS, ptr %3, i32 0, i32 15
  store i8 1, ptr %81, align 4
  %82 = getelementptr inbounds nuw %class.TransTableS, ptr %3, i32 0, i32 17
  %83 = load i32, ptr %82, align 8
  %84 = add nsw i32 %83, 1
  store i32 %84, ptr %82, align 8
  %85 = getelementptr inbounds nuw %class.TransTableS, ptr %3, i32 0, i32 17
  %86 = load i32, ptr %85, align 8
  %87 = getelementptr inbounds nuw %class.TransTableS, ptr %3, i32 0, i32 28
  store i32 %86, ptr %87, align 4
  %88 = getelementptr inbounds nuw %class.TransTableS, ptr %3, i32 0, i32 4
  %89 = getelementptr inbounds nuw %class.TransTableS, ptr %3, i32 0, i32 17
  %90 = load i32, ptr %89, align 8
  %91 = sext i32 %90 to i64
  %92 = getelementptr inbounds [5 x %"struct.TransTableS::winCardType"], ptr %88, i64 0, i64 %91
  %93 = getelementptr inbounds nuw %class.TransTableS, ptr %3, i32 0, i32 25
  store ptr %92, ptr %93, align 8
  br label %107

94:                                               ; preds = %60
  %95 = getelementptr inbounds nuw %class.TransTableS, ptr %3, i32 0, i32 8
  %96 = load i64, ptr %95, align 8
  %97 = add i64 %96, 2000040
  store i64 %97, ptr %95, align 8
  %98 = getelementptr inbounds nuw %class.TransTableS, ptr %3, i32 0, i32 28
  store i32 0, ptr %98, align 4
  %99 = getelementptr inbounds nuw %class.TransTableS, ptr %3, i32 0, i32 21
  %100 = load ptr, ptr %99, align 8
  %101 = getelementptr inbounds nuw %class.TransTableS, ptr %3, i32 0, i32 13
  %102 = load i32, ptr %101, align 4
  %103 = sext i32 %102 to i64
  %104 = getelementptr inbounds ptr, ptr %100, i64 %103
  %105 = load ptr, ptr %104, align 8
  %106 = getelementptr inbounds nuw %class.TransTableS, ptr %3, i32 0, i32 25
  store ptr %105, ptr %106, align 8
  br label %107

107:                                              ; preds = %94, %80
  br label %108

108:                                              ; preds = %107, %46
  br label %113

109:                                              ; preds = %20
  %110 = getelementptr inbounds nuw %class.TransTableS, ptr %3, i32 0, i32 28
  %111 = load i32, ptr %110, align 4
  %112 = add nsw i32 %111, 1
  store i32 %112, ptr %110, align 4
  br label %113

113:                                              ; preds = %109, %108
  br label %114

114:                                              ; preds = %113, %7
  ret void
}