; Function Attrs: mustprogress nofree nounwind willreturn uwtable
define void @_ZN11TransTableS9AddWinSetEv(ptr noundef nonnull align 8 dereferenceable(2396) %0) local_unnamed_addr #17 align 2 {
  %2 = getelementptr inbounds nuw i8, ptr %0, i64 404
  %3 = load i8, ptr %2, align 4
  %4 = trunc i8 %3 to i1
  br i1 %4, label %5, label %14

5:                                                ; preds = %1
  %6 = getelementptr inbounds nuw i8, ptr %0, i64 408
  %7 = load i32, ptr %6, align 8
  %8 = add nsw i32 %7, 1
  store i32 %8, ptr %6, align 8
  %9 = getelementptr inbounds nuw i8, ptr %0, i64 1804
  store i32 %8, ptr %9, align 4
  %10 = getelementptr inbounds nuw i8, ptr %0, i64 152
  %11 = sext i32 %8 to i64
  %12 = getelementptr inbounds [5 x %"struct.TransTableS::winCardType"], ptr %10, i64 0, i64 %11
  %13 = getelementptr inbounds nuw i8, ptr %0, i64 1344
  store ptr %12, ptr %13, align 8
  br label %71

14:                                               ; preds = %1
  %15 = getelementptr inbounds nuw i8, ptr %0, i64 1804
  %16 = load i32, ptr %15, align 4
  %17 = getelementptr inbounds nuw i8, ptr %0, i64 356
  %18 = load i32, ptr %17, align 4
  %.not = icmp slt i32 %16, %18
  br i1 %.not, label %69, label %19

19:                                               ; preds = %14
  %20 = getelementptr inbounds nuw i8, ptr %0, i64 368
  %21 = load i64, ptr %20, align 8
  %22 = getelementptr inbounds nuw i8, ptr %0, i64 384
  %23 = load i32, ptr %22, align 8
  %24 = sext i32 %23 to i64
  %25 = add i64 %21, %24
  %26 = getelementptr inbounds nuw i8, ptr %0, i64 360
  %27 = load i64, ptr %26, align 8
  %28 = icmp ugt i64 %25, %27
  br i1 %28, label %35, label %29

29:                                               ; preds = %19
  %30 = getelementptr inbounds nuw i8, ptr %0, i64 396
  %31 = load i32, ptr %30, align 4
  %32 = getelementptr inbounds nuw i8, ptr %0, i64 392
  %33 = load i32, ptr %32, align 8
  %.not2 = icmp sge i32 %31, %33
  %34 = icmp sgt i32 %16, 700000
  %or.cond = or i1 %34, %.not2
  br i1 %or.cond, label %35, label %43

35:                                               ; preds = %29, %19
  %36 = getelementptr inbounds nuw i8, ptr %0, i64 408
  %37 = load i32, ptr %36, align 8
  %38 = add nsw i32 %37, 1
  store i32 %38, ptr %36, align 8
  store i32 %38, ptr %15, align 4
  store i8 1, ptr %2, align 4
  %39 = getelementptr inbounds nuw i8, ptr %0, i64 152
  %40 = sext i32 %38 to i64
  %41 = getelementptr inbounds [5 x %"struct.TransTableS::winCardType"], ptr %39, i64 0, i64 %40
  %42 = getelementptr inbounds nuw i8, ptr %0, i64 1344
  store ptr %41, ptr %42, align 8
  br label %71

43:                                               ; preds = %29
  %44 = add nsw i32 %31, 1
  store i32 %44, ptr %30, align 4
  store i32 50000, ptr %17, align 4
  %45 = tail call noalias dereferenceable_or_null(2000040) ptr @malloc(i64 noundef 2000040) #30
  %46 = getelementptr inbounds nuw i8, ptr %0, i64 872
  %47 = load ptr, ptr %46, align 8
  %48 = sext i32 %44 to i64
  %49 = getelementptr inbounds ptr, ptr %47, i64 %48
  store ptr %45, ptr %49, align 8
  %50 = load ptr, ptr %46, align 8
  %51 = load i32, ptr %30, align 4
  %52 = sext i32 %51 to i64
  %53 = getelementptr inbounds ptr, ptr %50, i64 %52
  %54 = load ptr, ptr %53, align 8
  %55 = icmp eq ptr %54, null
  br i1 %55, label %56, label %64

56:                                               ; preds = %43
  store i8 1, ptr %2, align 4
  %57 = getelementptr inbounds nuw i8, ptr %0, i64 408
  %58 = load i32, ptr %57, align 8
  %59 = add nsw i32 %58, 1
  store i32 %59, ptr %57, align 8
  store i32 %59, ptr %15, align 4
  %60 = getelementptr inbounds nuw i8, ptr %0, i64 152
  %61 = sext i32 %59 to i64
  %62 = getelementptr inbounds [5 x %"struct.TransTableS::winCardType"], ptr %60, i64 0, i64 %61
  %63 = getelementptr inbounds nuw i8, ptr %0, i64 1344
  store ptr %62, ptr %63, align 8
  br label %71

64:                                               ; preds = %43
  %65 = load i64, ptr %20, align 8
  %66 = add i64 %65, 2000040
  store i64 %66, ptr %20, align 8
  store i32 0, ptr %15, align 4
  %67 = load ptr, ptr %53, align 8
  %68 = getelementptr inbounds nuw i8, ptr %0, i64 1344
  store ptr %67, ptr %68, align 8
  br label %71

69:                                               ; preds = %14
  %70 = add nsw i32 %16, 1
  store i32 %70, ptr %15, align 4
  br label %71

71:                                               ; preds = %69, %56, %64, %35, %5
  ret void
}